Certificate:
    Data:
        Version: 1 (0x0)
        Serial Number: 3 (0x3)
    Signature Algorithm: md5WithRSAEncryption
        Issuer: O=TestOrg, OU=TestDepartment, CN=TestCA/emailAddress=ca_admin@testorg.com
        Validity
            Not Before: Jun  3 07:01:39 2021 GMT
            Not After : Jun  3 07:01:39 2022 GMT
        Subject: O=ProxyCom, OU=ProxyOU, CN=proxy
        Subject Public Key Info:
            Public Key Algorithm: rsaEncryption
                Public-Key: (1024 bit)
                Modulus:
                    00:df:18:19:47:bf:39:ba:ea:3b:e8:7e:45:f4:36:
                    30:18:c7:f9:c3:3d:3a:2e:6c:fc:b9:b6:01:1c:ee:
                    1c:5c:78:5a:1e:c4:7a:92:fd:41:fe:c3:cd:27:7d:
                    92:39:e7:61:1b:9b:b3:09:df:3f:2d:b3:e6:fe:85:
                    64:c2:c5:32:c4:37:38:de:29:de:34:6f:28:01:d8:
                    c6:e5:1d:ae:e6:ef:71:f4:ea:6f:66:63:95:d1:6f:
                    a7:c6:a0:ee:20:77:a5:c8:47:cd:b6:fa:67:07:55:
                    cd:69:63:8c:7d:fc:ef:eb:fc:4c:f6:9c:34:f7:51:
                    25:f6:d0:98:56:f8:94:fe:25
                Exponent: 65537 (0x10001)
    Signature Algorithm: md5WithRSAEncryption
         74:30:c2:51:73:9a:b8:97:fd:5c:b7:f6:b5:b9:14:12:9f:3a:
         70:bc:44:f5:56:c4:4c:f5:ee:6c:2c:71:58:19:11:54:e4:8c:
         69:dc:75:5c:51:90:33:7f:ea:d5:4e:a5:bb:5a:52:8f:bf:46:
         6e:6f:7d:4e:d6:fa:5e:d7:7a:24:0c:c9:18:96:e7:48:98:e5:
         2e:d1:bf:b2:60:ac:4a:19:04:e8:52:ea:0f:e1:9b:00:37:1f:
         95:b7:53:5d:38:36:10:44:0a:3a:f0:cd:59:8e:37:c9:79:0d:
         5f:12:62:cb:0d:0d:77:f2:b8:17:4d:ad:da:73:7c:93:cb:af:
         2b:66:af:30:d4:31:13:86:b0:16:22:be:68:1b:0e:20:61:84:
         49:6e:3a:2b:2d:6c:dc:c2:ea:6a:a6:2d:fd:89:03:9c:3f:bd:
         74:0f:9e:86:2a:1e:99:75:3a:d5:96:40:8f:7b:cc:54:48:08:
         14:a2:6e:15:69:04:e1:f3:3c:86:91:05:3f:3c:4a:3e:14:0d:
         97:23:96:59:0e:84:b8:08:e5:d0:94:a7:9f:69:77:d0:8b:af:
         b0:cb:cf:df:d0:f0:a6:24:89:e9:fc:ab:f3:b0:b1:c1:61:02:
         d9:fb:d2:6b:12:00:08:58:8d:e0:fe:23:e4:81:5b:d1:e9:41:
         9c:1d:e3:7c
-----BEGIN CERTIFICATE-----
MIIChjCCAW4CAQMwDQYJKoZIhvcNAQEEBQAwYTEQMA4GA1UECgwHVGVzdE9yZzEX
MBUGA1UECwwOVGVzdERlcGFydG1lbnQxDzANBgNVBAMMBlRlc3RDQTEjMCEGCSqG
SIb3DQEJARYUY2FfYWRtaW5AdGVzdG9yZy5jb20wHhcNMjEwNjAzMDcwMTM5WhcN
MjIwNjAzMDcwMTM5WjA1MREwDwYDVQQKDAhQcm94eUNvbTEQMA4GA1UECwwHUHJv
eHlPVTEOMAwGA1UEAwwFcHJveHkwgZ8wDQYJKoZIhvcNAQEBBQADgY0AMIGJAoGB
AN8YGUe/ObrqO+h+RfQ2MBjH+cM9Oi5s/Lm2ARzuHFx4Wh7EepL9Qf7DzSd9kjnn
YRubswnfPy2z5v6FZMLFMsQ3ON4p3jRvKAHYxuUdrubvcfTqb2ZjldFvp8ag7iB3
pchHzbb6ZwdVzWljjH387+v8TPacNPdRJfbQmFb4lP4lAgMBAAEwDQYJKoZIhvcN
AQEEBQADggEBAHQwwlFzmriX/Vy39rW5FBKfOnC8RPVWxEz17mwscVgZEVTkjGnc
dVxRkDN/6tVOpbtaUo+/Rm5vfU7W+l7XeiQMyRiW50iY5S7Rv7JgrEoZBOhS6g/h
mwA3H5W3U104NhBECjrwzVmON8l5DV8SYssNDXfyuBdNrdpzfJPLrytmrzDUMROG
sBYivmgbDiBhhEluOistbNzC6mqmLf2JA5w/vXQPnoYqHpl1OtWWQI97zFRICBSi
bhVpBOHzPIaRBT88Sj4UDZcjllkOhLgI5dCUp59pd9CLr7DLz9/Q8KYkien8q/Ow
scFhAtn70msSAAhYjeD+I+SBW9HpQZwd43w=
-----END CERTIFICATE-----
